; Function Attrs: mustprogress uwtable
define dso_local void @_ZN4pbrt8internal9ToString3INS_8IntervalEEENSt7__cxx1112basic_stringIcSt11char_traitsIcESaIcEEET_S9_S9_(ptr dead_on_unwind noalias writable sret(%"class.std::__cxx11::basic_string") align 8 %0, <2 x float> %1, <2 x float> %2, <2 x float> %3) local_unnamed_addr #1 personality ptr @__gxx_personality_v0 {
  %5 = alloca %"class.pbrt::Interval", align 8
  %6 = alloca %"class.pbrt::Interval", align 8
  %7 = alloca %"class.pbrt::Interval", align 8
  store <2 x float> %1, ptr %5, align 8
  store <2 x float> %2, ptr %6, align 8
  store <2 x float> %3, ptr %7, align 8
  %8 = getelementptr inbounds nuw i8, ptr %0, i64 16
  store ptr %8, ptr %0, align 8, !tbaa !8, !alias.scope !42
  %9 = getelementptr inbounds nuw i8, ptr %0, i64 8
  store i64 0, ptr %9, align 8, !tbaa !15, !alias.scope !42
  store i8 0, ptr %8, align 8, !tbaa !18, !alias.scope !42
  invoke void @_ZN4pbrt6detail21stringPrintfRecursiveIRNS_8IntervalEJS3_S3_EEEvPNSt7__cxx1112basic_stringIcSt11char_traitsIcESaIcEEEPKcOT_DpOT0_(ptr noundef nonnull align 8 %0, ptr noundef nonnull @.str.6, ptr noundef nonnull align 4 dereferenceable(8) %5, ptr noundef nonnull align 4 dereferenceable(8) %6, ptr noundef nonnull align 4 dereferenceable(8) %7)
          to label %_ZN4pbrt12StringPrintfIJRNS_8IntervalES2_S2_EEENSt7__cxx1112basic_stringIcSt11char_traitsIcESaIcEEEPKcDpOT_.exit unwind label %10

10:                                               ; preds = %4
  %11 = landingpad { ptr, i32 }
          cleanup
  %12 = load ptr, ptr %0, align 8, !tbaa !19, !alias.scope !42
  %13 = icmp eq ptr %12, %8
  br i1 %13, label %_ZNKSt7__cxx1112basic_stringIcSt11char_traitsIcESaIcEE11_M_is_localEv.exit.thread.i.i.i, label %_ZNKSt7__cxx1112basic_stringIcSt11char_traitsIcESaIcEE11_M_is_localEv.exit.i.i.i

_ZNKSt7__cxx1112basic_stringIcSt11char_traitsIcESaIcEE11_M_is_localEv.exit.thread.i.i.i: ; preds = %10
  %14 = load i64, ptr %9, align 8, !tbaa !15, !alias.scope !42
  %15 = icmp ult i64 %14, 16
  call void @llvm.assume(i1 %15)
  br label %_ZNSt7__cxx1112basic_stringIcSt11char_traitsIcESaIcEED2Ev.exit.i

_ZNKSt7__cxx1112basic_stringIcSt11char_traitsIcESaIcEE11_M_is_localEv.exit.i.i.i: ; preds = %10
  %16 = load i64, ptr %8, align 8, !tbaa !18, !alias.scope !42
  %17 = add i64 %16, 1
  call void @_ZdlPvm(ptr noundef %12, i64 noundef %17) #21
  br label %_ZNSt7__cxx1112basic_stringIcSt11char_traitsIcESaIcEED2Ev.exit.i

_ZNSt7__cxx1112basic_stringIcSt11char_traitsIcESaIcEED2Ev.exit.i: ; preds = %_ZNKSt7__cxx1112basic_stringIcSt11char_traitsIcESaIcEE11_M_is_localEv.exit.i.i.i, %_ZNKSt7__cxx1112basic_stringIcSt11char_traitsIcESaIcEE11_M_is_localEv.exit.thread.i.i.i
  resume { ptr, i32 } %11

_ZN4pbrt12StringPrintfIJRNS_8IntervalES2_S2_EEENSt7__cxx1112basic_stringIcSt11char_traitsIcESaIcEEEPKcDpOT_.exit: ; preds = %4
  ret void
}